target datalayout = "e-m:e-p270:32:32-p271:32:32-p272:64:64-i64:64-i128:128-f80:128-n8:16:32:64-S128"
target triple = "x86_64-pc-linux-gnu"

%struct.od_entry = type { i16, i16, [64 x i8], ptr, i64 }
%struct.subobject = type { %struct.range_admin_tag, %struct.od_entry }
%struct.range_admin_tag = type { i32, i32 }
%struct.profile = type { i16, i8, %struct._address, i32, i32, ptr, ptr, ptr, ptr, ptr, ptr, ptr, i32, ptr, ptr, ptr }
%struct._address = type { i32, i32, ptr, ptr }
%struct.object = type { %struct.od_entry, ptr }
%struct.epl_wmem_iarray = type { ptr, ptr, ptr, i32, i8 }
%struct._GArray = type { ptr, i32 }
%struct._xmlNodeSet = type { i32, i32, ptr }
%struct._xmlNode = type { ptr, i32, ptr, ptr, ptr, ptr, ptr, ptr, ptr, ptr, ptr, ptr, ptr, ptr, i16, i16 }

@.str.50 = private unnamed_addr constant [30 x i8] c"Loaded mapping from XDC %s:%s\00", align 1

; Function Attrs: null_pointer_is_valid sspstrong uwtable
define internal void @epl_wmem_iarray_insert(ptr noundef %0, i32 noundef %1, ptr noundef %2) #0 {
  %4 = alloca ptr, align 8
  %5 = alloca i32, align 4
  %6 = alloca ptr, align 8
  store ptr %0, ptr %4, align 8
  store i32 %1, ptr %5, align 4
  store ptr %2, ptr %6, align 8
  %7 = load ptr, ptr %4, align 8
  %8 = getelementptr inbounds nuw %struct.epl_wmem_iarray, ptr %7, i32 0, i32 2
  %9 = load ptr, ptr %8, align 8
  %10 = getelementptr inbounds nuw %struct._GArray, ptr %9, i32 0, i32 1
  %11 = load i32, ptr %10, align 8
  %12 = icmp ne i32 %11, 0
  br i1 %12, label %13, label %19

13:                                               ; preds = %3
  %14 = load ptr, ptr %4, align 8
  %15 = getelementptr inbounds nuw %struct.epl_wmem_iarray, ptr %14, i32 0, i32 4
  %16 = load i8, ptr %15, align 4
  %17 = and i8 %16, -2
  %18 = or i8 %17, 0
  store i8 %18, ptr %15, align 4
  br label %19

19:                                               ; preds = %13, %3
  %20 = load i32, ptr %5, align 4
  %21 = load ptr, ptr %6, align 8
  %22 = getelementptr inbounds nuw %struct.range_admin_tag, ptr %21, i32 0, i32 0
  store i32 %20, ptr %22, align 4
  %23 = load ptr, ptr %6, align 8
  %24 = getelementptr inbounds nuw %struct.range_admin_tag, ptr %23, i32 0, i32 1
  store i32 %20, ptr %24, align 4
  %25 = load ptr, ptr %4, align 8
  %26 = getelementptr inbounds nuw %struct.epl_wmem_iarray, ptr %25, i32 0, i32 2
  %27 = load ptr, ptr %26, align 8
  %28 = load ptr, ptr %6, align 8
  %29 = call ptr @g_array_append_vals(ptr noundef %27, ptr noundef %28, i32 noundef 1)
  ret void
}

; Function Attrs: null_pointer_is_valid sspstrong uwtable
define internal noalias ptr @epl_wmem_iarray_new(ptr noundef %0, i32 noundef %1, ptr noundef %2) #0 {
  %4 = alloca ptr, align 8
  %5 = alloca ptr, align 8
  %6 = alloca i32, align 4
  %7 = alloca ptr, align 8
  %8 = alloca ptr, align 8
  %9 = alloca i32, align 4
  store ptr %0, ptr %5, align 8
  store i32 %1, ptr %6, align 4
  store ptr %2, ptr %7, align 8
  call void @llvm.lifetime.start.p0(i64 8, ptr %8) #13
  %10 = load i32, ptr %6, align 4
  %11 = zext i32 %10 to i64
  %12 = icmp ult i64 %11, 4
  br i1 %12, label %13, label %14

13:                                               ; preds = %3
  store ptr null, ptr %4, align 8
  store i32 1, ptr %9, align 4
  br label %42

14:                                               ; preds = %3
  %15 = load ptr, ptr %5, align 8
  %16 = call noalias ptr @wmem_alloc(ptr noundef %15, i64 noundef 32) #15
  store ptr %16, ptr %8, align 8
  %17 = load ptr, ptr %8, align 8
  %18 = icmp ne ptr %17, null
  br i1 %18, label %20, label %19

19:                                               ; preds = %14
  store ptr null, ptr %4, align 8
  store i32 1, ptr %9, align 4
  br label %42

20:                                               ; preds = %14
  %21 = load ptr, ptr %7, align 8
  %22 = load ptr, ptr %8, align 8
  %23 = getelementptr inbounds nuw %struct.epl_wmem_iarray, ptr %22, i32 0, i32 0
  store ptr %21, ptr %23, align 8
  %24 = load ptr, ptr %5, align 8
  %25 = load ptr, ptr %8, align 8
  %26 = getelementptr inbounds nuw %struct.epl_wmem_iarray, ptr %25, i32 0, i32 1
  store ptr %24, ptr %26, align 8
  %27 = load i32, ptr %6, align 4
  %28 = call ptr @g_array_new(i32 noundef 0, i32 noundef 0, i32 noundef %27)
  %29 = load ptr, ptr %8, align 8
  %30 = getelementptr inbounds nuw %struct.epl_wmem_iarray, ptr %29, i32 0, i32 2
  store ptr %28, ptr %30, align 8
  %31 = load ptr, ptr %8, align 8
  %32 = getelementptr inbounds nuw %struct.epl_wmem_iarray, ptr %31, i32 0, i32 4
  %33 = load i8, ptr %32, align 4
  %34 = and i8 %33, -2
  %35 = or i8 %34, 1
  store i8 %35, ptr %32, align 4
  %36 = load ptr, ptr %5, align 8
  %37 = load ptr, ptr %8, align 8
  %38 = getelementptr inbounds nuw %struct.epl_wmem_iarray, ptr %37, i32 0, i32 2
  %39 = load ptr, ptr %38, align 8
  %40 = call i32 @wmem_register_callback(ptr noundef %36, ptr noundef @free_garray, ptr noundef %39)
  %41 = load ptr, ptr %8, align 8
  store ptr %41, ptr %4, align 8
  store i32 1, ptr %9, align 4
  br label %42

42:                                               ; preds = %20, %19, %13
  call void @llvm.lifetime.end.p0(i64 8, ptr %8) #13
  %43 = load ptr, ptr %4, align 8
  ret ptr %43
}

; Function Attrs: null_pointer_is_valid sspstrong uwtable
define internal i32 @populate_object_list(ptr noundef %0, ptr noundef %1) #0 {
  %3 = alloca ptr, align 8
  %4 = alloca ptr, align 8
  %5 = alloca i32, align 4
  %6 = alloca ptr, align 8
  %7 = alloca ptr, align 8
  %8 = alloca %struct.od_entry, align 8
  %9 = alloca i32, align 4
  %10 = alloca ptr, align 8
  %11 = alloca ptr, align 8
  %12 = alloca %struct.subobject, align 8
  store ptr %0, ptr %3, align 8
  store ptr %1, ptr %4, align 8
  call void @llvm.lifetime.start.p0(i64 4, ptr %5) #13
  call void @llvm.lifetime.start.p0(i64 8, ptr %6) #13
  %13 = load ptr, ptr %4, align 8
  store ptr %13, ptr %6, align 8
  store i32 0, ptr %5, align 4
  br label %14

14:                                               ; preds = %145, %2
  %15 = load i32, ptr %5, align 4
  %16 = load ptr, ptr %3, align 8
  %17 = getelementptr inbounds nuw %struct._xmlNodeSet, ptr %16, i32 0, i32 0
  %18 = load i32, ptr %17, align 8
  %19 = icmp slt i32 %15, %18
  br i1 %19, label %20, label %148

20:                                               ; preds = %14
  call void @llvm.lifetime.start.p0(i64 8, ptr %7) #13
  %21 = load ptr, ptr %3, align 8
  %22 = getelementptr inbounds nuw %struct._xmlNodeSet, ptr %21, i32 0, i32 2
  %23 = load ptr, ptr %22, align 8
  %24 = load i32, ptr %5, align 4
  %25 = sext i32 %24 to i64
  %26 = getelementptr ptr, ptr %23, i64 %25
  %27 = load ptr, ptr %26, align 8
  store ptr %27, ptr %7, align 8
  call void @llvm.lifetime.start.p0(i64 88, ptr %8) #13
  call void @llvm.memset.p0.i64(ptr align 8 %8, i8 0, i64 88, i1 false)
  %28 = load ptr, ptr %3, align 8
  %29 = getelementptr inbounds nuw %struct._xmlNodeSet, ptr %28, i32 0, i32 2
  %30 = load ptr, ptr %29, align 8
  %31 = load i32, ptr %5, align 4
  %32 = sext i32 %31 to i64
  %33 = getelementptr ptr, ptr %30, i64 %32
  %34 = load ptr, ptr %33, align 8
  %35 = icmp ne ptr %34, null
  br i1 %35, label %36, label %47

36:                                               ; preds = %20
  %37 = load ptr, ptr %3, align 8
  %38 = getelementptr inbounds nuw %struct._xmlNodeSet, ptr %37, i32 0, i32 2
  %39 = load ptr, ptr %38, align 8
  %40 = load i32, ptr %5, align 4
  %41 = sext i32 %40 to i64
  %42 = getelementptr ptr, ptr %39, i64 %41
  %43 = load ptr, ptr %42, align 8
  %44 = getelementptr inbounds nuw %struct._xmlNode, ptr %43, i32 0, i32 1
  %45 = load i32, ptr %44, align 8
  %46 = icmp ne i32 %45, 1
  br i1 %46, label %47, label %48

47:                                               ; preds = %36, %20
  store i32 4, ptr %9, align 4
  br label %142

48:                                               ; preds = %36
  %49 = load ptr, ptr %7, align 8
  %50 = load ptr, ptr %6, align 8
  %51 = call zeroext i1 @parse_obj_tag(ptr noundef %49, ptr noundef %8, ptr noundef %50)
  %52 = getelementptr inbounds nuw %struct.od_entry, ptr %8, i32 0, i32 0
  %53 = load i16, ptr %52, align 8
  %54 = icmp ne i16 %53, 0
  br i1 %54, label %55, label %141

55:                                               ; preds = %48
  call void @llvm.lifetime.start.p0(i64 8, ptr %10) #13
  %56 = load ptr, ptr %6, align 8
  %57 = getelementptr inbounds nuw %struct.od_entry, ptr %8, i32 0, i32 0
  %58 = load i16, ptr %57, align 8
  %59 = call ptr @epl_profile_object_add(ptr noundef %56, i16 noundef zeroext %58)
  store ptr %59, ptr %10, align 8
  %60 = load ptr, ptr %10, align 8
  %61 = getelementptr inbounds nuw %struct.object, ptr %60, i32 0, i32 0
  call void @llvm.memcpy.p0.p0.i64(ptr align 8 %61, ptr align 8 %8, i64 88, i1 false)
  %62 = getelementptr inbounds nuw %struct.od_entry, ptr %8, i32 0, i32 1
  %63 = load i16, ptr %62, align 2
  %64 = zext i16 %63 to i32
  %65 = icmp eq i32 %64, 8
  br i1 %65, label %71, label %66

66:                                               ; preds = %55
  %67 = getelementptr inbounds nuw %struct.od_entry, ptr %8, i32 0, i32 1
  %68 = load i16, ptr %67, align 2
  %69 = zext i16 %68 to i32
  %70 = icmp eq i32 %69, 9
  br i1 %70, label %71, label %140

71:                                               ; preds = %66, %55
  call void @llvm.lifetime.start.p0(i64 8, ptr %11) #13
  call void @llvm.lifetime.start.p0(i64 96, ptr %12) #13
  call void @llvm.memset.p0.i64(ptr align 8 %12, i8 0, i64 96, i1 false)
  %72 = load ptr, ptr %6, align 8
  %73 = getelementptr inbounds nuw %struct.profile, ptr %72, i32 0, i32 6
  %74 = load ptr, ptr %73, align 8
  %75 = call noalias ptr @epl_wmem_iarray_new(ptr noundef %74, i32 noundef 96, ptr noundef @subobject_equal)
  %76 = load ptr, ptr %10, align 8
  %77 = getelementptr inbounds nuw %struct.object, ptr %76, i32 0, i32 1
  store ptr %75, ptr %77, align 8
  %78 = load ptr, ptr %7, align 8
  %79 = getelementptr inbounds nuw %struct._xmlNode, ptr %78, i32 0, i32 3
  %80 = load ptr, ptr %79, align 8
  store ptr %80, ptr %11, align 8
  br label %81

81:                                               ; preds = %132, %71
  %82 = load ptr, ptr %11, align 8
  %83 = icmp ne ptr %82, null
  br i1 %83, label %84, label %136

84:                                               ; preds = %81
  %85 = load ptr, ptr %11, align 8
  %86 = getelementptr inbounds nuw %struct._xmlNode, ptr %85, i32 0, i32 1
  %87 = load i32, ptr %86, align 8
  %88 = icmp ne i32 %87, 1
  br i1 %88, label %89, label %90

89:                                               ; preds = %84
  br label %132

90:                                               ; preds = %84
  %91 = load ptr, ptr %11, align 8
  %92 = getelementptr inbounds nuw %struct.subobject, ptr %12, i32 0, i32 1
  %93 = load ptr, ptr %6, align 8
  %94 = call zeroext i1 @parse_obj_tag(ptr noundef %91, ptr noundef %92, ptr noundef %93)
  br i1 %94, label %95, label %104

95:                                               ; preds = %90
  %96 = load ptr, ptr %10, align 8
  %97 = getelementptr inbounds nuw %struct.object, ptr %96, i32 0, i32 1
  %98 = load ptr, ptr %97, align 8
  %99 = getelementptr inbounds nuw %struct.subobject, ptr %12, i32 0, i32 1
  %100 = getelementptr inbounds nuw %struct.od_entry, ptr %99, i32 0, i32 0
  %101 = load i16, ptr %100, align 8
  %102 = zext i16 %101 to i32
  %103 = getelementptr inbounds nuw %struct.subobject, ptr %12, i32 0, i32 0
  call void @epl_wmem_iarray_insert(ptr noundef %98, i32 noundef %102, ptr noundef %103)
  br label %104

104:                                              ; preds = %95, %90
  %105 = getelementptr inbounds nuw %struct.subobject, ptr %12, i32 0, i32 1
  %106 = getelementptr inbounds nuw %struct.od_entry, ptr %105, i32 0, i32 4
  %107 = load i64, ptr %106, align 8
  %108 = icmp ne i64 %107, 0
  br i1 %108, label %109, label %131

109:                                              ; preds = %104
  %110 = load ptr, ptr %6, align 8
  %111 = load ptr, ptr %10, align 8
  %112 = getelementptr inbounds nuw %struct.object, ptr %111, i32 0, i32 0
  %113 = getelementptr inbounds nuw %struct.od_entry, ptr %112, i32 0, i32 0
  %114 = load i16, ptr %113, align 8
  %115 = getelementptr inbounds nuw %struct.subobject, ptr %12, i32 0, i32 1
  %116 = getelementptr inbounds nuw %struct.od_entry, ptr %115, i32 0, i32 0
  %117 = load i16, ptr %116, align 8
  %118 = trunc i16 %117 to i8
  %119 = getelementptr inbounds nuw %struct.subobject, ptr %12, i32 0, i32 1
  %120 = getelementptr inbounds nuw %struct.od_entry, ptr %119, i32 0, i32 4
  %121 = load i64, ptr %120, align 8
  %122 = call zeroext i1 @epl_profile_object_mapping_add(ptr noundef %110, i16 noundef zeroext %114, i8 noundef zeroext %118, i64 noundef %121)
  br i1 %122, label %123, label %131

123:                                              ; preds = %109
  %124 = load ptr, ptr %10, align 8
  %125 = getelementptr inbounds nuw %struct.object, ptr %124, i32 0, i32 0
  %126 = getelementptr inbounds nuw %struct.od_entry, ptr %125, i32 0, i32 2
  %127 = getelementptr inbounds [64 x i8], ptr %126, i64 0, i64 0
  %128 = getelementptr inbounds nuw %struct.subobject, ptr %12, i32 0, i32 1
  %129 = getelementptr inbounds nuw %struct.od_entry, ptr %128, i32 0, i32 2
  %130 = getelementptr inbounds [64 x i8], ptr %129, i64 0, i64 0
  call void (ptr, i32, ptr, ...) @ws_log(ptr noundef null, i32 noundef 3, ptr noundef @.str.50, ptr noundef %127, ptr noundef %130)
  br label %131

131:                                              ; preds = %123, %109, %104
  br label %132

132:                                              ; preds = %131, %89
  %133 = load ptr, ptr %11, align 8
  %134 = getelementptr inbounds nuw %struct._xmlNode, ptr %133, i32 0, i32 6
  %135 = load ptr, ptr %134, align 8
  store ptr %135, ptr %11, align 8
  br label %81, !llvm.loop !19

136:                                              ; preds = %81
  %137 = load ptr, ptr %10, align 8
  %138 = getelementptr inbounds nuw %struct.object, ptr %137, i32 0, i32 1
  %139 = load ptr, ptr %138, align 8
  call void @epl_wmem_iarray_sort_and_compact(ptr noundef %139)
  call void @llvm.lifetime.end.p0(i64 96, ptr %12) #13
  call void @llvm.lifetime.end.p0(i64 8, ptr %11) #13
  br label %140

140:                                              ; preds = %136, %66
  call void @llvm.lifetime.end.p0(i64 8, ptr %10) #13
  br label %141

141:                                              ; preds = %140, %48
  store i32 0, ptr %9, align 4
  br label %142

142:                                              ; preds = %141, %47
  call void @llvm.lifetime.end.p0(i64 88, ptr %8) #13
  call void @llvm.lifetime.end.p0(i64 8, ptr %7) #13
  %143 = load i32, ptr %9, align 4
  switch i32 %143, label %149 [
    i32 0, label %144
    i32 4, label %145
  ]

144:                                              ; preds = %142
  br label %145

145:                                              ; preds = %144, %142
  %146 = load i32, ptr %5, align 4
  %147 = add i32 %146, 1
  store i32 %147, ptr %5, align 4
  br label %14, !llvm.loop !20

148:                                              ; preds = %14
  store i32 1, ptr %9, align 4
  call void @llvm.lifetime.end.p0(i64 8, ptr %6) #13
  call void @llvm.lifetime.end.p0(i64 4, ptr %5) #13
  ret i32 0

149:                                              ; preds = %142
  unreachable
}