; Function Attrs: null_pointer_is_valid sspstrong uwtable
define internal noundef i32 @populate_object_list(ptr noundef readonly captures(none) %0, ptr noundef %1) #0 {
  %3 = alloca %struct.od_entry, align 8
  %4 = alloca %struct.subobject, align 8
  %5 = load i32, ptr %0, align 8
  %6 = icmp sgt i32 %5, 0
  br i1 %6, label %.lr.ph44, label %._crit_edge45

.lr.ph44:                                         ; preds = %2
  %7 = getelementptr inbounds nuw i8, ptr %0, i64 8
  %8 = getelementptr inbounds nuw i8, ptr %3, i64 2
  %9 = getelementptr inbounds nuw i8, ptr %1, i64 48
  %10 = getelementptr inbounds nuw i8, ptr %4, i64 8
  %11 = getelementptr inbounds nuw i8, ptr %4, i64 4
  %12 = getelementptr inbounds nuw i8, ptr %4, i64 88
  %13 = getelementptr inbounds nuw i8, ptr %4, i64 12
  br label %14

14:                                               ; preds = %.lr.ph44, %72
  %indvars.iv = phi i64 [ 0, %.lr.ph44 ], [ %indvars.iv.next, %72 ]
  %15 = load ptr, ptr %7, align 8
  %16 = getelementptr ptr, ptr %15, i64 %indvars.iv
  %17 = load ptr, ptr %16, align 8
  call void @llvm.lifetime.start.p0(i64 88, ptr nonnull %3) #13
  call void @llvm.memset.p0.i64(ptr noundef nonnull align 8 dereferenceable(88) %3, i8 0, i64 88, i1 false)
  %18 = load ptr, ptr %16, align 8
  %.not = icmp eq ptr %18, null
  br i1 %.not, label %72, label %19

19:                                               ; preds = %14
  %20 = getelementptr inbounds nuw i8, ptr %18, i64 8
  %21 = load i32, ptr %20, align 8
  %.not33 = icmp eq i32 %21, 1
  br i1 %.not33, label %22, label %72

22:                                               ; preds = %19
  %23 = call fastcc zeroext i1 @parse_obj_tag(ptr noundef %17, ptr noundef nonnull %3, ptr noundef %1)
  %24 = load i16, ptr %3, align 8
  %.not34 = icmp eq i16 %24, 0
  br i1 %.not34, label %72, label %25

25:                                               ; preds = %22
  %26 = call ptr @epl_profile_object_add(ptr noundef %1, i16 noundef zeroext %24)
  call void @llvm.memcpy.p0.p0.i64(ptr noundef align 8 dereferenceable(88) %26, ptr noundef nonnull align 8 dereferenceable(88) %3, i64 88, i1 false)
  %27 = load i16, ptr %8, align 2
  %28 = and i16 %27, -2
  %or.cond = icmp eq i16 %28, 8
  br i1 %or.cond, label %29, label %72

29:                                               ; preds = %25
  call void @llvm.lifetime.start.p0(i64 96, ptr nonnull %4) #13
  call void @llvm.memset.p0.i64(ptr noundef nonnull align 8 dereferenceable(96) %4, i8 0, i64 96, i1 false)
  %30 = load ptr, ptr %9, align 8
  %31 = call noalias dereferenceable_or_null(32) ptr @wmem_alloc(ptr noundef %30, i64 noundef 32) #15
  %.not.i = icmp eq ptr %31, null
  br i1 %.not.i, label %epl_wmem_iarray_new.exit, label %32

32:                                               ; preds = %29
  store ptr @subobject_equal, ptr %31, align 8
  %33 = getelementptr inbounds nuw i8, ptr %31, i64 8
  store ptr %30, ptr %33, align 8
  %34 = call ptr @g_array_new(i32 noundef 0, i32 noundef 0, i32 noundef 96)
  %35 = getelementptr inbounds nuw i8, ptr %31, i64 16
  store ptr %34, ptr %35, align 8
  %36 = getelementptr inbounds nuw i8, ptr %31, i64 28
  %37 = load i8, ptr %36, align 4
  %38 = or i8 %37, 1
  store i8 %38, ptr %36, align 4
  %39 = call i32 @wmem_register_callback(ptr noundef %30, ptr noundef nonnull @free_garray, ptr noundef %34)
  br label %epl_wmem_iarray_new.exit

epl_wmem_iarray_new.exit:                         ; preds = %29, %32
  %40 = getelementptr inbounds nuw i8, ptr %26, i64 88
  store ptr %31, ptr %40, align 8
  %41 = getelementptr inbounds nuw i8, ptr %17, i64 24
  %.039 = load ptr, ptr %41, align 8
  %.not3540 = icmp eq ptr %.039, null
  br i1 %.not3540, label %._crit_edge, label %.lr.ph

.lr.ph:                                           ; preds = %epl_wmem_iarray_new.exit
  %42 = getelementptr inbounds nuw i8, ptr %26, i64 4
  br label %43

43:                                               ; preds = %.lr.ph, %69
  %.041 = phi ptr [ %.039, %.lr.ph ], [ %.0, %69 ]
  %44 = getelementptr inbounds nuw i8, ptr %.041, i64 8
  %45 = load i32, ptr %44, align 8
  %.not36 = icmp eq i32 %45, 1
  br i1 %.not36, label %46, label %69

46:                                               ; preds = %43
  %47 = call fastcc zeroext i1 @parse_obj_tag(ptr noundef nonnull %.041, ptr noundef nonnull %10, ptr noundef %1)
  br i1 %47, label %48, label %61

48:                                               ; preds = %46
  %49 = load ptr, ptr %40, align 8
  %50 = load i16, ptr %10, align 8
  %51 = zext i16 %50 to i32
  %52 = getelementptr inbounds nuw i8, ptr %49, i64 16
  %53 = load ptr, ptr %52, align 8
  %54 = getelementptr inbounds nuw i8, ptr %53, i64 8
  %55 = load i32, ptr %54, align 8
  %.not.i38 = icmp eq i32 %55, 0
  br i1 %.not.i38, label %epl_wmem_iarray_insert.exit, label %56

56:                                               ; preds = %48
  %57 = getelementptr inbounds nuw i8, ptr %49, i64 28
  %58 = load i8, ptr %57, align 4
  %59 = and i8 %58, -2
  store i8 %59, ptr %57, align 4
  br label %epl_wmem_iarray_insert.exit

epl_wmem_iarray_insert.exit:                      ; preds = %48, %56
  store i32 %51, ptr %4, align 8
  store i32 %51, ptr %11, align 4
  %60 = call ptr @g_array_append_vals(ptr noundef %53, ptr noundef nonnull %4, i32 noundef 1)
  br label %61

61:                                               ; preds = %epl_wmem_iarray_insert.exit, %46
  %62 = load i64, ptr %12, align 8
  %.not37 = icmp eq i64 %62, 0
  br i1 %.not37, label %69, label %63

63:                                               ; preds = %61
  %64 = load i16, ptr %26, align 8
  %65 = load i16, ptr %10, align 8
  %66 = trunc i16 %65 to i8
  %67 = call zeroext i1 @epl_profile_object_mapping_add(ptr noundef %1, i16 noundef zeroext %64, i8 noundef zeroext %66, i64 noundef %62)
  br i1 %67, label %68, label %69

68:                                               ; preds = %63
  call void (ptr, i32, ptr, ...) @ws_log(ptr noundef null, i32 noundef 3, ptr noundef nonnull @.str.50, ptr noundef nonnull %42, ptr noundef nonnull %13)
  br label %69

69:                                               ; preds = %61, %63, %68, %43
  %70 = getelementptr inbounds nuw i8, ptr %.041, i64 48
  %.0 = load ptr, ptr %70, align 8
  %.not35 = icmp eq ptr %.0, null
  br i1 %.not35, label %._crit_edge.loopexit, label %43, !llvm.loop !18

._crit_edge.loopexit:                             ; preds = %69
  %.pre = load ptr, ptr %40, align 8
  br label %._crit_edge

._crit_edge:                                      ; preds = %._crit_edge.loopexit, %epl_wmem_iarray_new.exit
  %71 = phi ptr [ %.pre, %._crit_edge.loopexit ], [ %31, %epl_wmem_iarray_new.exit ]
  call fastcc void @epl_wmem_iarray_sort_and_compact(ptr noundef %71)
  call void @llvm.lifetime.end.p0(i64 96, ptr nonnull %4) #13
  br label %72

72:                                               ; preds = %22, %25, %._crit_edge, %14, %19
  call void @llvm.lifetime.end.p0(i64 88, ptr nonnull %3) #13
  %indvars.iv.next = add nuw nsw i64 %indvars.iv, 1
  %73 = load i32, ptr %0, align 8
  %74 = sext i32 %73 to i64
  %75 = icmp slt i64 %indvars.iv.next, %74
  br i1 %75, label %14, label %._crit_edge45, !llvm.loop !19

._crit_edge45:                                    ; preds = %72, %2
  ret i32 0
}